	.cpu generic+fp+simd
	.file	"bastet_channel.c"
	.text
.Ltext0:
	.cfi_sections	.debug_frame
#APP
	.irp	num,0,1,2,3,4,5,6,7,8,9,10,11,12,13,14,15,16,17,18,19,20,21,22,23,24,25,26,27,28,29,30
	.equ	__reg_num_x\num, \num
	.endr
	.equ	__reg_num_xzr, 31

	.macro	mrs_s, rt, sreg
	.inst	0xd5200000|(\sreg)|(__reg_num_\rt)
	.endm

	.macro	msr_s, sreg, rt
	.inst	0xd5000000|(\sreg)|(__reg_num_\rt)
	.endm

#NO_APP
	.align	2
	.type	bastet_get_link_id, %function
bastet_get_link_id:
.LFB3443:
	.file 1 "/home/jenkins/slaves/workspace/chipset_component_dallas_BND_F_opensource/component_code/vendor/huawei/extra/build/build_script/austin_kernel_release/kernel/drivers/huawei_platform/power/bastet/bastet_channel.c"
	.loc 1 56 0
	.cfi_startproc
.LVL0:
	stp	x29, x30, [sp, -80]!
	.cfi_def_cfa_offset 80
	.cfi_offset 29, -80
	.cfi_offset 30, -72
.LBB157:
.LBB158:
.LBB159:
.LBB160:
.LBB161:
	.file 2 "/home/jenkins/slaves/workspace/chipset_component_dallas_BND_F_opensource/component_code/vendor/huawei/extra/build/build_script/austin_kernel_release/kernel/arch/arm64/include/asm/thread_info.h"
	.loc 2 85 0
	mov	x2, sp
.LBE161:
.LBE160:
.LBE159:
.LBE158:
.LBE157:
	.loc 1 56 0
	add	x29, sp, 0
	.cfi_def_cfa_register 29
.LBB170:
.LBB167:
.LBB164:
.LBB163:
.LBB162:
	.loc 2 85 0
	and	x2, x2, -16384
.LBE162:
.LBE163:
.LBE164:
.LBE167:
.LBE170:
	.loc 1 56 0
	stp	x23, x24, [sp,48]
	stp	x19, x20, [sp,16]
	stp	x21, x22, [sp,32]
	.cfi_offset 23, -32
	.cfi_offset 24, -24
	.cfi_offset 19, -64
	.cfi_offset 20, -56
	.cfi_offset 21, -48
	.cfi_offset 22, -40
	.loc 1 56 0
	mov	x23, x0
	mov	x24, x1
.LBB171:
.LBB168:
.LBB165:
	.loc 1 63 0
	ldr	x0, [x2,16]
.LVL1:
.LBE165:
.LBE168:
.LBE171:
	.loc 1 64 0
	mov	w19, 0
.LVL2:
.LBB172:
.LBB169:
.LBB166:
	.loc 1 63 0
	ldr	x0, [x0,2536]
.LBE166:
	ldr	x22, [x0,8]
.LVL3:
.L3:
.LBE169:
.LBE172:
	.loc 1 65 0
	add	x1, x29, 76
.LVL4:
	mov	w0, w19
.LVL5:
	mov	w20, w19
	.loc 1 64 0 discriminator 2
	add	w19, w19, 1
	.loc 1 65 0
	bl	sockfd_lookup
.LVL6:
	mov	x1, x0
.LVL7:
	.loc 1 66 0
	cbz	x0, .L6
	.loc 1 69 0
	ldr	x0, [x0,24]
	.loc 1 68 0
	ldr	x21, [x1,32]
	.loc 1 69 0
	bl	fput
.LVL8:
	.loc 1 70 0
	cmp	x21, x23
	beq	.L14
.LVL9:
.L6:
	.loc 1 64 0 discriminator 1
	ldr	w0, [x22]
.LVL10:
	cmp	w0, w19
	bcs	.L3
.LBB173:
.LBB174:
	.loc 2 85 0
	mov	x0, sp
.LBE174:
.LBE173:
	.loc 1 74 0 discriminator 2
	mov	w20, 0
.LBB177:
.LBB175:
	.loc 2 85 0
	and	x0, x0, -16384
.LBE175:
.LBE177:
	.loc 1 73 0
	ldr	x0, [x0,16]
	ldr	w0, [x0,1112]
	str	w0, [x24,4]
	.loc 1 74 0 discriminator 4
	str	w20, [x24]
	.loc 1 75 0
	ldp	x19, x20, [sp,16]
	.cfi_remember_state
	.cfi_restore 20
	.cfi_restore 19
.LVL11:
	ldp	x21, x22, [sp,32]
	.cfi_restore 22
	.cfi_restore 21
.LVL12:
	ldp	x23, x24, [sp,48]
	.cfi_restore 24
	.cfi_restore 23
.LVL13:
	ldp	x29, x30, [sp], 80
	.cfi_restore 30
	.cfi_restore 29
	.cfi_def_cfa 31, 0
	ret
.LVL14:
.L14:
	.cfi_restore_state
.LBB178:
.LBB176:
	.loc 2 85 0
	mov	x0, sp
	and	x0, x0, -16384
.LBE176:
.LBE178:
	.loc 1 73 0
	ldr	x0, [x0,16]
	ldr	w0, [x0,1112]
	str	w0, [x24,4]
	.loc 1 74 0 discriminator 4
	str	w20, [x24]
	.loc 1 75 0
	ldp	x19, x20, [sp,16]
	.cfi_restore 19
	.cfi_restore 20
.LVL15:
	ldp	x21, x22, [sp,32]
	.cfi_restore 21
	.cfi_restore 22
.LVL16:
	ldp	x23, x24, [sp,48]
	.cfi_restore 23
	.cfi_restore 24
.LVL17:
	ldp	x29, x30, [sp], 80
	.cfi_restore 29
	.cfi_restore 30
	.cfi_def_cfa 31, 0
	ret
	.cfi_endproc
.LFE3443:
	.size	bastet_get_link_id, .-bastet_get_link_id
	.align	2
	.type	bastet_update_seq, %function
bastet_update_seq:
.LFB3449:
	.loc 1 227 0
	.cfi_startproc
.LVL18:
	stp	x29, x30, [sp, -96]!
	.cfi_def_cfa_offset 96
	.cfi_offset 29, -96
	.cfi_offset 30, -88
	uxtb	w2, w2
	add	x29, sp, 0
	.cfi_def_cfa_register 29
	stp	x19, x20, [sp,16]
	str	x21, [sp,32]
	.cfi_offset 19, -80
	.cfi_offset 20, -72
	.cfi_offset 21, -64
	.loc 1 227 0
	mov	x20, x0
	mov	x19, x1
	.loc 1 231 0
	cbz	w2, .L16
	.loc 1 231 0 is_stmt 0 discriminator 1
	ldr	x0, [x0,304]
.LVL19:
	cbnz	x0, .L34
.L16:
	.loc 1 237 0 is_stmt 1
	ldr	w0, [x20,1920]
	add	w0, w0, w19
	str	w0, [x20,1920]
	.loc 1 238 0
	str	w0, [x20,1628]
	.loc 1 239 0
	ldp	x19, x20, [sp,16]
	.cfi_remember_state
	.cfi_restore 20
	.cfi_restore 19
.LVL20:
	ldr	x21, [sp,32]
	.cfi_restore 21
	ldp	x29, x30, [sp], 96
	.cfi_restore 30
	.cfi_restore 29
	.cfi_def_cfa 31, 0
	ret
.LVL21:
.L34:
	.cfi_restore_state
	.loc 1 232 0
	strb	wzr, [x0,232]
.LBB186:
	mov	x21, 300
.LBB187:
	.loc 1 233 0
	ldr	x0, [x20,304]
.LBE187:
	.loc 1 233 0 is_stmt 0 discriminator 3
	ldrb	w1, [x0,232]
	cbnz	w1, .L17
.LBB188:
.LBB189:
	.loc 1 233 0 discriminator 22
	add	x1, x29, 56
	mov	w2, 1
.LVL22:
.LBE189:
.LBB193:
.LBB194:
	.file 3 "/home/jenkins/slaves/workspace/chipset_component_dallas_BND_F_opensource/component_code/vendor/huawei/extra/build/build_script/austin_kernel_release/kernel/include/linux/list.h"
	.loc 3 27 0 is_stmt 1
	add	x3, x1, 24
.LBE194:
.LBE193:
.LBB196:
	.loc 1 233 0 discriminator 22
	add	x0, x0, 192
.LBE196:
.LBB197:
.LBB195:
	.loc 3 27 0
	str	x3, [x29,80]
	.loc 3 28 0
	str	x3, [x29,88]
.LBE195:
.LBE197:
	.loc 1 233 0 discriminator 7
	str	wzr, [x29,56]
.LBB198:
	.loc 1 233 0 is_stmt 0 discriminator 22
	bl	prepare_to_wait_event
.LVL23:
.LBB190:
	ldr	x1, [x20,304]
.LBE190:
	mov	x2, x0
.LBB191:
	ldrb	w3, [x1,232]
.LVL24:
.L18:
.LBE191:
	.loc 1 233 0 discriminator 21
	mov	x0, x21
	.loc 1 233 0 discriminator 13
	cbnz	w3, .L19
.L35:
	cbz	x21, .L19
	.loc 1 233 0 discriminator 15
	cbnz	x2, .L23
	.loc 1 233 0 discriminator 21
	bl	schedule_timeout
.LVL25:
	mov	x21, x0
	.loc 1 233 0 discriminator 22
	ldr	x0, [x20,304]
	add	x1, x29, 56
	mov	w2, 1
	add	x0, x0, 192
	bl	prepare_to_wait_event
.LVL26:
	mov	x2, x0
.LBB192:
	ldr	x1, [x20,304]
	ldrb	w3, [x1,232]
.LVL27:
	cbnz	x21, .L18
	.loc 1 233 0 discriminator 11
	cmp	w3, wzr
	csinc	x21, x21, xzr, eq
.LBE192:
	.loc 1 233 0 discriminator 21
	mov	x0, x21
	.loc 1 233 0 discriminator 13
	cbz	w3, .L35
	b	.L19
.L23:
	mov	x21, x2
.L19:
.LBE198:
	.loc 1 233 0 discriminator 23
	add	x0, x1, 192
	add	x1, x29, 56
	bl	finish_wait
.LVL28:
.L17:
.LBE188:
.LBE186:
	.loc 1 235 0 is_stmt 1 discriminator 1
	adrp	x0, .LC0
	adrp	x1, .LANCHOR0
	add	x1, x1, :lo12:.LANCHOR0
	mov	w2, w21
.LVL29:
	add	x0, x0, :lo12:.LC0
	bl	printk
.LVL30:
	b	.L16
	.cfi_endproc
.LFE3449:
	.size	bastet_update_seq, .-bastet_update_seq
	.align	2
	.type	bastet_send_priority_msg_internal, %function
bastet_send_priority_msg_internal:
.LFB3450:
	.loc 1 243 0
	.cfi_startproc
.LVL31:
	stp	x29, x30, [sp, -224]!
	.cfi_def_cfa_offset 224
	.cfi_offset 29, -224
	.cfi_offset 30, -216
	mov	x3, x1
	add	x29, sp, 0
	.cfi_def_cfa_register 29
	stp	x19, x20, [sp,16]
	stp	x23, x24, [sp,48]
	stp	x21, x22, [sp,32]
	stp	x25, x26, [sp,64]
	stp	x27, x28, [sp,80]
	.cfi_offset 19, -208
	.cfi_offset 20, -200
	.cfi_offset 23, -176
	.cfi_offset 24, -168
	.cfi_offset 21, -192
	.cfi_offset 22, -184
	.cfi_offset 25, -160
	.cfi_offset 26, -152
	.cfi_offset 27, -144
	.cfi_offset 28, -136
	.loc 1 243 0
	str	x1, [x29,120]
	.loc 1 254 0
	add	x1, x29, 160
.LVL32:
	.loc 1 248 0
	ldr	w21, [x3,72]
	.loc 1 243 0
	mov	x23, x0
	str	x2, [x29,104]
	.loc 1 253 0
	mov	w2, 1
.LVL33:
	strb	w2, [x0,328]
	.loc 1 256 0
	add	x19, x29, 184
.LBB250:
.LBB251:
	.loc 1 82 0
	mov	w20, 1
.LVL34:
.LBE251:
.LBE250:
	.loc 1 254 0
	bl	bastet_get_link_id
.LVL35:
	.loc 1 255 0
	add	x1, x29, 168
	mov	x0, x23
	bl	bastet_get_comm_prop
.LVL36:
	.loc 1 256 0
	mov	x0, x23
	mov	x1, x19
	bl	bastet_get_sock_prop
.LVL37:
.LBB253:
.LBB252:
	.loc 1 81 0
	tbnz	x21, 18, .L37
	.loc 1 83 0
	and	w21, w21, 524288
.LVL38:
	.loc 1 86 0
	mov	w20, 2
.LVL39:
	cmp	w21, wzr
	csel	w20, w20, wzr, ne
.LVL40:
.L37:
.LBE252:
.LBE253:
	.loc 1 258 0
	mov	x0, x23
	bl	get_bastet_sock_state
.LVL41:
	str	w0, [x29,116]
	uxtb	w21, w0
.LVL42:
.LBB254:
.LBB255:
	.file 4 "/home/jenkins/slaves/workspace/chipset_component_dallas_BND_F_opensource/component_code/vendor/huawei/extra/build/build_script/austin_kernel_release/kernel/include/linux/slab.h"
	.loc 4 442 0
	adrp	x0, kmalloc_caches+88
	mov	w1, 32
	mov	x2, 1500
	ldr	x0, [x0,#:lo12:kmalloc_caches+88]
	bl	kmem_cache_alloc_trace
.LVL43:
	mov	x28, x0
.LBE255:
.LBE254:
	.loc 1 261 0
	cbz	x0, .L103
.LBB256:
.LBB257:
	.file 5 "/home/jenkins/slaves/workspace/chipset_component_dallas_BND_F_opensource/component_code/vendor/huawei/extra/build/build_script/austin_kernel_release/kernel/include/net/tcp.h"
	.loc 5 1521 0
	add	x3, x23, 432
.LBE257:
.LBE256:
	.loc 1 265 0
	mov	w1, 0
	mov	x2, 1500
.LBB262:
.LBB260:
	.loc 5 1521 0
	mov	x22, x3
	str	x3, [x29,144]
.LBE260:
.LBE262:
	.loc 1 265 0
	bl	memset
.LVL44:
	.loc 1 266 0
	mov	x1, x28
	ldr	x2, [x29,160]
	.loc 1 268 0
	add	x0, x28, 20
	.loc 1 266 0
	str	x2, [x1],8
	.loc 1 267 0
	ldr	x2, [x29,168]
	str	x2, [x28,8]
	ldr	w2, [x29,176]
	str	w2, [x1,8]
	.loc 1 268 0
	ldp	x4, x5, [x19]
	stp	x4, x5, [x0]
	ldp	x4, x5, [x19,16]
	stp	x4, x5, [x0,16]
	ldr	x1, [x29,216]
	str	x1, [x28,52]
	.loc 1 269 0
	strb	w20, [x28,60]
	.loc 1 270 0
	strb	w21, [x28,61]
	.loc 1 272 0
	bl	set_channel_occupied
.LVL45:
.LBB263:
.LBB261:
.LBB258:
.LBB259:
	.file 6 "/home/jenkins/slaves/workspace/chipset_component_dallas_BND_F_opensource/component_code/vendor/huawei/extra/build/build_script/austin_kernel_release/kernel/include/linux/skbuff.h"
	.loc 6 1002 0
	ldr	x26, [x23,432]
.LVL46:
	cmp	x22, x26
	cset	w0, eq
	str	w0, [x29,112]
.LBE259:
.LBE258:
.LBE261:
.LBE263:
	.loc 1 274 0
	cbz	w0, .L104
.LVL47:
.L40:
	ldr	x0, [x29,120]
.LVL48:
.LBB264:
.LBB265:
	.loc 1 121 0
	mov	x1, 40111
	movk	x1, 0xc51, lsl 16
	.loc 1 123 0 discriminator 1
	mov	w27, 0
.LVL49:
	.loc 1 121 0
	movk	x1, 0xcae0, lsl 32
	.loc 1 122 0
	mov	w26, 0
.LVL50:
	ldr	x0, [x0,40]
.LVL51:
	.loc 1 121 0
	movk	x1, 0xc519, lsl 48
	.loc 1 115 0
	ldr	x2, [x0,8]
.LVL52:
	.loc 1 116 0
	ldr	x24, [x0]
.LVL53:
	.loc 1 121 0
	lsr	x0, x2, 1
.LVL54:
	.loc 1 115 0
	str	x2, [x29,152]
	.loc 1 121 0
	umulh	x0, x0, x1
.LBB266:
.LBB267:
.LBB268:
.LBB269:
.LBB270:
	.loc 2 85 0
	mov	x1, sp
.LBE270:
.LBE269:
.LBE268:
.LBE267:
.LBE266:
	.loc 1 121 0
	lsr	x0, x0, 9
.LBB278:
.LBB275:
.LBB273:
.LBB272:
.LBB271:
	.loc 2 85 0
	and	x21, x1, -16384
.LVL55:
.LBE271:
.LBE272:
.LBE273:
.LBE275:
.LBE278:
	.loc 1 124 0
	mov	x1, 1330
	.loc 1 121 0
	mov	w19, w0
.LVL56:
	.loc 1 124 0
	msub	x0, x0, x1, x2
	str	x0, [x29,144]
	.loc 1 123 0 discriminator 1
	str	w0, [x29,140]
.L68:
	.loc 1 123 0 is_stmt 0
	cmp	w19, w26
	mov	x22, 1330
	.loc 1 123 0 discriminator 2
	mov	w25, w22
.LVL57:
	.loc 1 123 0
	bls	.L105
.L56:
.LBB279:
.LBB280:
	.loc 1 95 0 is_stmt 1
	cbz	w19, .L58
	ldr	x0, [x29,152]
.LVL58:
	cmp	x0, 1330
	beq	.L58
	.loc 1 97 0
	cbz	w26, .L59
	.loc 1 102 0
	cmp	w19, w26
	mov	w0, 2
.LVL59:
	csel	w0, w0, wzr, eq
.LVL60:
.LBE280:
.LBE279:
	.loc 1 127 0
	strb	w0, [x28,63]
	.loc 1 130 0
	adrp	x0, jiffies
.LVL61:
	.loc 1 129 0
	ldr	w1, [x23,1920]
	add	w1, w27, w1
	.loc 1 128 0
	str	w1, [x28,20]
	.loc 1 130 0
	ldr	x0, [x0,#:lo12:jiffies]
	.loc 1 131 0
	ldr	w1, [x23,1660]
	.loc 1 132 0
	str	w25, [x28,64]
	.loc 1 131 0
	add	w0, w1, w0
	.loc 1 130 0
	str	w0, [x28,52]
.LVL62:
.L62:
	.loc 1 139 0
	strb	wzr, [x28,62]
	uxtw	x1, w27
.L64:
	.loc 1 141 0
	add	x1, x24, x1
	add	x20, x28, 68
.LVL63:
.LBB281:
.LBB276:
.LBB274:
	.file 7 "/home/jenkins/slaves/workspace/chipset_component_dallas_BND_F_opensource/component_code/vendor/huawei/extra/build/build_script/austin_kernel_release/kernel/arch/arm64/include/asm/uaccess.h"
	.loc 7 269 0
	ldr	x2, [x21,8]
.LVL64:
	mov	x0, x1
.LVL65:
#APP
// 269 "/home/jenkins/slaves/workspace/chipset_component_dallas_BND_F_opensource/component_code/vendor/huawei/extra/build/build_script/austin_kernel_release/kernel/arch/arm64/include/asm/uaccess.h" 1
	adds x0, x0, x22; ccmp x0, x2, #2, cc; cset x8, ls
// 0 "" 2
.LVL66:
#NO_APP
.LBE274:
	.loc 7 271 0
	mov	x0, x20
.LVL67:
	.loc 7 269 0
	cbz	x8, .L65
	.loc 7 271 0
	mov	x2, x22
	bl	__arch_copy_from_user
.LVL68:
.LBE276:
.LBE281:
	.loc 1 143 0
	cbnz	w0, .L67
.L107:
	.loc 1 146 0
	mov	x1, x28
	add	w2, w25, 68
	mov	w0, 8
	.loc 1 122 0 discriminator 2
	add	w26, w26, 1
	add	w27, w27, 1330
	.loc 1 146 0
	bl	post_indicate_packet
.LVL69:
	.loc 1 148 0
	mov	x0, x20
	mov	w1, 0
	mov	x2, x22
	bl	memset
.LVL70:
	.loc 1 122 0 discriminator 1
	cmp	w19, w26
	bcs	.L68
.LVL71:
.L57:
.LBE265:
.LBE264:
	.loc 1 282 0
	mov	x0, x28
	bl	kfree
.LVL72:
	.loc 1 283 0
	ldr	w0, [x29,116]
	and	w2, w0, 255
	cmp	w2, 4
	bls	.L106
	.loc 1 296 0
	adrp	x1, .LANCHOR0
	adrp	x0, .LC2
	add	x1, x1, :lo12:.LANCHOR0
	add	x0, x0, :lo12:.LC2
	add	x1, x1, 24
	bl	printk
.LVL73:
	.loc 1 300 0
	mov	w0, 1
.LVL74:
.L98:
	.loc 1 301 0
	ldp	x19, x20, [sp,16]
	.cfi_remember_state
	.cfi_restore 20
	.cfi_restore 19
.LVL75:
	ldp	x21, x22, [sp,32]
	.cfi_restore 22
	.cfi_restore 21
.LVL76:
	ldp	x23, x24, [sp,48]
	.cfi_restore 24
	.cfi_restore 23
.LVL77:
	ldp	x25, x26, [sp,64]
	.cfi_restore 26
	.cfi_restore 25
.LVL78:
	ldp	x27, x28, [sp,80]
	.cfi_restore 28
	.cfi_restore 27
	ldp	x29, x30, [sp], 224
	.cfi_restore 30
	.cfi_restore 29
	.cfi_def_cfa 31, 0
	ret
.LVL79:
.L58:
	.cfi_restore_state
.LBB286:
.LBB283:
	.loc 1 127 0
	mov	w0, 3
.LVL80:
	strb	w0, [x28,63]
	.loc 1 130 0
	adrp	x0, jiffies
	.loc 1 129 0
	ldr	w1, [x23,1920]
	add	w1, w1, w27
	.loc 1 128 0
	str	w1, [x28,20]
	.loc 1 130 0
	ldr	x0, [x0,#:lo12:jiffies]
	.loc 1 131 0
	ldr	w1, [x23,1660]
	.loc 1 132 0
	str	w25, [x28,64]
	.loc 1 131 0
	add	w0, w1, w0
	.loc 1 130 0
	str	w0, [x28,52]
	.loc 1 133 0
	cbnz	w26, .L62
	uxtw	x1, w27
	b	.L73
.LVL81:
.L65:
.LBB282:
.LBB277:
	.loc 7 273 0
	mov	w1, 0
	mov	x2, x22
	bl	memset
.LVL82:
	mov	x0, x22
.LBE277:
.LBE282:
	.loc 1 143 0
	cbz	w0, .L107
.L67:
.LBE283:
.LBE286:
	.loc 1 277 0
	mov	x0, x28
	bl	kfree
.LVL83:
	.loc 1 278 0
	bl	clear_channel_occupied
.LVL84:
	.loc 1 279 0
	mov	w0, -14
	.loc 1 301 0
	ldp	x19, x20, [sp,16]
	.cfi_remember_state
	.cfi_restore 19
	.cfi_restore 20
.LVL85:
	ldp	x21, x22, [sp,32]
	.cfi_restore 21
	.cfi_restore 22
	ldp	x23, x24, [sp,48]
	.cfi_restore 23
	.cfi_restore 24
.LVL86:
	ldp	x25, x26, [sp,64]
	.cfi_restore 25
	.cfi_restore 26
.LVL87:
	ldp	x27, x28, [sp,80]
	.cfi_restore 27
	.cfi_restore 28
	ldp	x29, x30, [sp], 224
	.cfi_restore 29
	.cfi_restore 30
	.cfi_def_cfa 31, 0
	ret
.LVL88:
.L106:
	.cfi_restore_state
	.loc 1 283 0
	adrp	x0, .L74
	add	x0, x0, :lo12:.L74
	ldrb	w0, [x0,w2,uxtw]
	adr	x1, .Lrtx74
	add	x0, x1, w0, sxtb #2
	br	x0
.Lrtx74:
	.section	.rodata
	.align	0
	.align	2
.L74:
	.byte	(.L70 - .Lrtx74) / 4
	.byte	(.L71 - .Lrtx74) / 4
	.byte	(.L71 - .Lrtx74) / 4
	.byte	(.L69 - .Lrtx74) / 4
	.byte	(.L70 - .Lrtx74) / 4
	.text
.L69:
	.loc 1 286 0
	mov	x0, x23
	bl	bastet_sync_prop_cancel
.LVL89:
.L70:
.LBB287:
.LBB288:
	.loc 1 237 0
	ldr	w1, [x23,1920]
.LBE288:
.LBE287:
	.loc 1 300 0
	mov	w0, 1
.LBB290:
.LBB289:
	.loc 1 237 0
	ldr	w2, [x29,104]
	add	w28, w1, w2
	str	w28, [x23,1920]
	.loc 1 238 0
	str	w28, [x23,1628]
.LBE289:
.LBE290:
	.loc 1 301 0
	ldp	x19, x20, [sp,16]
	.cfi_remember_state
	.cfi_restore 19
	.cfi_restore 20
.LVL90:
	ldp	x21, x22, [sp,32]
	.cfi_restore 21
	.cfi_restore 22
	ldp	x23, x24, [sp,48]
	.cfi_restore 23
	.cfi_restore 24
.LVL91:
	ldp	x25, x26, [sp,64]
	.cfi_restore 25
	.cfi_restore 26
.LVL92:
	ldp	x27, x28, [sp,80]
	.cfi_restore 27
	.cfi_restore 28
	ldp	x29, x30, [sp], 224
	.cfi_restore 29
	.cfi_restore 30
	.cfi_def_cfa 31, 0
	ret
.LVL93:
.L71:
	.cfi_restore_state
	.loc 1 293 0
	ldr	x1, [x29,104]
	mov	x0, x23
	mov	w2, 1
	bl	bastet_update_seq
.LVL94:
	.loc 1 300 0
	mov	w0, 1
	.loc 1 301 0
	ldp	x19, x20, [sp,16]
	.cfi_remember_state
	.cfi_restore 19
	.cfi_restore 20
.LVL95:
	ldp	x21, x22, [sp,32]
	.cfi_restore 21
	.cfi_restore 22
	ldp	x23, x24, [sp,48]
	.cfi_restore 23
	.cfi_restore 24
.LVL96:
	ldp	x25, x26, [sp,64]
	.cfi_restore 25
	.cfi_restore 26
.LVL97:
	ldp	x27, x28, [sp,80]
	.cfi_restore 27
	.cfi_restore 28
	ldp	x29, x30, [sp], 224
	.cfi_restore 29
	.cfi_restore 30
	.cfi_def_cfa 31, 0
	ret
.LVL98:
.L104:
	.cfi_restore_state
.LBB291:
.LBB292:
	.loc 1 198 0
	mov	w0, 1
.LVL99:
	str	w0, [x29,152]
	cbz	x26, .L54
.LVL100:
.L91:
.LBB293:
.LBB294:
	.loc 1 161 0
	ldr	w19, [x26,120]
.LVL101:
	.loc 1 166 0
	mov	w6, 51937
	movk	w6, 0xc519, lsl 16
	.loc 1 169 0 discriminator 1
	mov	w24, 0
.LVL102:
	.loc 1 166 0
	lsr	w0, w19, 1
.LVL103:
	.loc 1 167 0
	mov	w25, 0
	.loc 1 166 0
	umull	x6, w0, w6
	.loc 1 169 0 discriminator 1
	mov	w0, 1330
	.loc 1 166 0
	lsr	x6, x6, 32
	lsr	w27, w6, 9
	.loc 1 169 0 discriminator 1
	msub	w0, w27, w0, w19
	str	w0, [x29,140]
	add	w1, w0, 68
	str	x0, [x29,128]
	str	w1, [x29,136]
.L50:
	.loc 1 169 0 is_stmt 0
	cmp	w27, w25
	bls	.L108
	mov	x22, 1330
	mov	w21, 1398
.LVL104:
	.loc 1 169 0 discriminator 2
	mov	w0, w22
.L42:
.LBB295:
.LBB296:
	.loc 1 95 0 is_stmt 1
	cbz	w27, .L79
	cmp	w19, 1330
	beq	.L79
	.loc 1 97 0
	cbz	w25, .L80
	.loc 1 99 0
	cmp	w27, w25
	beq	.L109
.LBE296:
.LBE295:
	.loc 1 172 0
	strb	wzr, [x28,63]
.L101:
	.loc 1 174 0
	ldr	w2, [x26,40]
	.loc 1 181 0 discriminator 2
	mov	w1, 2
	.loc 1 174 0
	add	w2, w2, w24
	.loc 1 173 0
	str	w2, [x28,20]
	.loc 1 176 0
	ldr	w2, [x23,1660]
	str	w2, [x28,52]
	.loc 1 180 0
	str	w0, [x28,64]
.LVL105:
.L48:
	.loc 1 181 0 discriminator 4
	strb	w1, [x28,62]
	.loc 1 183 0
	add	x5, x28, 68
	mov	x0, x5
.LVL106:
	mov	x2, x22
	ldr	x1, [x26,208]
	mov	x20, x5
.LVL107:
	.loc 1 167 0 discriminator 2
	add	w25, w25, 1
	add	w24, w24, 1330
	.loc 1 183 0
	bl	memcpy
.LVL108:
	.loc 1 184 0
	mov	x1, x28
	mov	w2, w21
	mov	w0, 8
	bl	post_indicate_packet
.LVL109:
	.loc 1 186 0
	mov	x0, x20
	mov	w1, 0
	mov	x2, x22
	bl	memset
.LVL110:
	.loc 1 167 0 discriminator 1
	cmp	w27, w25
	bcs	.L50
.LVL111:
.L51:
.LBE294:
.LBE293:
.LBB303:
.LBB304:
.LBB305:
	.loc 6 1513 0
	ldr	w0, [x23,448]
	sub	w0, w0, #1
	str	w0, [x23,448]
	.loc 6 1514 0
	ldr	x1, [x26]
.LVL112:
	.loc 6 1515 0
	ldr	x0, [x26,8]
.LVL113:
	.loc 6 1516 0
	str	xzr, [x26]
	str	xzr, [x26,8]
	.loc 6 1517 0
	str	x0, [x1,8]
	.loc 6 1518 0
	str	x1, [x0]
.LBE305:
.LBE304:
.LBE303:
.LBB306:
.LBB307:
.LBB308:
.LBB309:
.LBB310:
	.file 8 "/home/jenkins/slaves/workspace/chipset_component_dallas_BND_F_opensource/component_code/vendor/huawei/extra/build/build_script/austin_kernel_release/kernel/include/asm-generic/bitops/non-atomic.h"
	.loc 8 20 0
	ldr	x1, [x23,368]
.LVL114:
.LBE310:
.LBE309:
.LBE308:
	.file 9 "/home/jenkins/slaves/workspace/chipset_component_dallas_BND_F_opensource/component_code/vendor/huawei/extra/build/build_script/austin_kernel_release/kernel/include/net/sock.h"
	.loc 9 1488 0
	ldr	w0, [x23,484]
.LVL115:
.LBB313:
.LBB312:
.LBB311:
	.loc 8 20 0
	orr	x1, x1, 16384
	str	x1, [x23,368]
.LBE311:
.LBE312:
.LBE313:
.LBB314:
.LBB315:
.LBB316:
.LBB317:
	.loc 9 1434 0
	ldr	x1, [x23,40]
.LBE317:
.LBE316:
.LBE315:
.LBE314:
	.loc 9 1488 0
	ldr	w2, [x26,216]
	sub	w0, w0, w2
	str	w0, [x23,484]
.LBB320:
.LBB318:
	.loc 9 1480 0
	ldr	x1, [x1,216]
.LBE318:
.LBE320:
	.loc 9 1489 0
	ldr	w0, [x26,216]
.LBB321:
.LBB319:
	.loc 9 1480 0
	cbz	x1, .L43
	.loc 9 1482 0
	ldr	w1, [x23,256]
	add	w0, w1, w0
	str	w0, [x23,256]
.L43:
.LBE319:
.LBE321:
	.loc 9 1490 0
	mov	x0, x26
	bl	__kfree_skb
.LVL116:
.LBE307:
.LBE306:
	.loc 1 209 0
	ldr	x0, [x23,1952]
	cmp	x26, x0
	beq	.L110
.L52:
	.loc 1 211 0
	ldr	x0, [x23,1944]
	cmp	x26, x0
	beq	.L111
.L53:
.LBB322:
.LBB323:
.LBB324:
	.loc 6 1250 0
	ldr	x0, [x29,144]
	ldr	x26, [x0]
	.loc 6 1252 0
	cmp	x0, x26
	beq	.L54
	str	wzr, [x29,152]
.LBE324:
.LBE323:
.LBE322:
	.loc 1 198 0
	cbnz	x26, .L91
.LVL117:
.L54:
	.loc 1 220 0
	adrp	x1, jiffies
	.loc 1 215 0
	str	wzr, [x23,1816]
	.loc 1 216 0
	str	wzr, [x23,1820]
	.loc 1 223 0
	mov	x0, x23
.LVL118:
	.loc 1 217 0
	str	wzr, [x23,1940]
	.loc 1 220 0
	ldr	x1, [x1,#:lo12:jiffies]
	.loc 1 218 0
	str	wzr, [x23,1936]
	.loc 1 219 0
	str	wzr, [x23,1932]
	.loc 1 220 0
	str	w1, [x23,1648]
	.loc 1 221 0
	str	xzr, [x23,816]
	.loc 1 223 0
	bl	tcp_rearm_rto
.LVL119:
	b	.L40
.LVL120:
.L79:
.LBB325:
.LBB301:
.LBB299:
.LBB297:
	.loc 1 96 0
	mov	w1, 3
.LVL121:
.L45:
.LBE297:
.LBE299:
	.loc 1 172 0
	strb	w1, [x28,63]
	.loc 1 174 0
	ldr	w1, [x26,40]
.LVL122:
	add	w1, w1, w24
	.loc 1 173 0
	str	w1, [x28,20]
	.loc 1 176 0
	ldr	w1, [x23,1660]
	str	w1, [x28,52]
	.loc 1 180 0
	str	w0, [x28,64]
	.loc 1 181 0
	cbnz	w25, .L84
	ldr	w0, [x29,152]
	.loc 1 181 0 is_stmt 0 discriminator 1
	mov	w1, 3
.LVL123:
	.loc 1 181 0
	cbnz	w0, .L48
.L84:
	.loc 1 181 0 discriminator 2
	mov	w1, 2
	b	.L48
.LVL124:
.L111:
.LBE301:
.LBE325:
	.loc 1 212 0 is_stmt 1
	str	xzr, [x23,1944]
	b	.L53
.L110:
	.loc 1 210 0
	str	xzr, [x23,1952]
	b	.L52
.LVL125:
.L105:
.LBE292:
.LBE291:
.LBB328:
.LBB284:
	.loc 1 125 0
	ldr	x0, [x29,144]
	cbz	x0, .L57
	mov	x22, x0
	ldr	w25, [x29,140]
	b	.L56
.LVL126:
.L108:
.LBE284:
.LBE328:
.LBB329:
.LBB327:
.LBB326:
.LBB302:
	.loc 1 170 0
	ldr	w0, [x29,140]
	cbz	w0, .L51
	ldr	w21, [x29,136]
.LVL127:
	ldr	x22, [x29,128]
	ldr	w0, [x29,140]
	b	.L42
.L80:
.LBB300:
.LBB298:
	.loc 1 98 0
	mov	w1, 1
.LVL128:
	b	.L45
.LVL129:
.L109:
.LBE298:
.LBE300:
	.loc 1 172 0
	mov	w1, 2
	strb	w1, [x28,63]
	b	.L101
.LVL130:
.L59:
.LBE302:
.LBE326:
.LBE327:
.LBE329:
.LBB330:
.LBB285:
	.loc 1 127 0
	mov	w0, 1
.LVL131:
	strb	w0, [x28,63]
	.loc 1 130 0
	adrp	x0, jiffies
	.loc 1 132 0
	mov	x1, 0
	.loc 1 128 0
	ldr	w2, [x23,1920]
	str	w2, [x28,20]
	.loc 1 130 0
	ldr	x0, [x0,#:lo12:jiffies]
	.loc 1 131 0
	ldr	w2, [x23,1660]
	.loc 1 132 0
	str	w25, [x28,64]
	.loc 1 131 0
	add	w0, w2, w0
	.loc 1 130 0
	str	w0, [x28,52]
.LVL132:
.L73:
	.loc 1 135 0
	ldr	w0, [x29,112]
	mov	w2, 3
.LVL133:
	cmp	w0, wzr
	mov	w0, 2
	csel	w0, w0, w2, eq
	strb	w0, [x28,62]
	b	.L64
.LVL134:
.L103:
.LBE285:
.LBE330:
	.loc 1 262 0
	adrp	x1, .LANCHOR0
	adrp	x0, .LC1
	add	x1, x1, :lo12:.LANCHOR0
	add	x0, x0, :lo12:.LC1
	add	x1, x1, 24
	bl	printk
.LVL135:
	.loc 1 263 0
	mov	w0, 0
	b	.L98
	.cfi_endproc
.LFE3450:
	.size	bastet_send_priority_msg_internal, .-bastet_send_priority_msg_internal
	.align	2
	.global	bastet_send_priority_msg
	.type	bastet_send_priority_msg, %function
bastet_send_priority_msg:
.LFB3453:
	.loc 1 376 0
	.cfi_startproc
.LVL136:
	stp	x29, x30, [sp, -64]!
	.cfi_def_cfa_offset 64
	.cfi_offset 29, -64
	.cfi_offset 30, -56
	add	x29, sp, 0
	.cfi_def_cfa_register 29
	stp	x19, x20, [sp,16]
	stp	x21, x22, [sp,32]
	.cfi_offset 19, -48
	.cfi_offset 20, -40
	.cfi_offset 21, -32
	.cfi_offset 22, -24
	.loc 1 376 0
	mov	x20, x0
	mov	x19, x1
	mov	x21, x2
	.loc 1 377 0
	bl	is_bastet_enabled
.LVL137:
	uxtb	w0, w0
	cbnz	w0, .L149
.LVL138:
.L118:
	.loc 1 391 0
	mov	w0, 0
.LVL139:
.L147:
	.loc 1 392 0
	ldp	x19, x20, [sp,16]
	.cfi_remember_state
	.cfi_restore 20
	.cfi_restore 19
.LVL140:
	ldp	x21, x22, [sp,32]
	.cfi_restore 22
	.cfi_restore 21
.LVL141:
	ldp	x29, x30, [sp], 64
	.cfi_restore 30
	.cfi_restore 29
	.cfi_def_cfa 31, 0
	ret
.LVL142:
.L149:
	.cfi_restore_state
	.loc 1 380 0
	bl	is_channel_enable
.LVL143:
	uxtb	w0, w0
	cbz	w0, .L118
	.loc 1 382 0
	bl	is_proxy_available
.LVL144:
	uxtb	w0, w0
	cbz	w0, .L118
	.loc 1 384 0
	bl	is_buffer_available
.LVL145:
	uxtb	w0, w0
	cbz	w0, .L118
	.loc 1 386 0
	bl	is_channel_available
.LVL146:
	uxtb	w0, w0
	cbz	w0, .L118
.LBB342:
.LBB343:
.LBB344:
.LBB345:
	.file 10 "/home/jenkins/slaves/workspace/chipset_component_dallas_BND_F_opensource/component_code/vendor/huawei/extra/build/build_script/austin_kernel_release/kernel/include/linux/err.h"
	.loc 10 40 0
	cbz	x19, .L114
	.loc 10 40 0 is_stmt 0 discriminator 2
	cmn	x19, #4096
	bhi	.L114
.L119:
.LBE345:
.LBE344:
.LBB346:
.LBB347:
	.loc 1 315 0 is_stmt 1
	mov	x0, x20
	bl	is_wifi_proxy
.LVL147:
	uxtb	w0, w0
	cbnz	w0, .L118
.LBB348:
.LBB349:
.LBB350:
.LBB351:
	.loc 9 1742 0
	ldr	x0, [x20,384]
.LVL148:
.LBE351:
.LBE350:
.LBE349:
	.loc 1 319 0
	cbz	x0, .L118
	.loc 1 319 0 is_stmt 0 discriminator 1
	ldr	x1, [x0,24]
	cbz	x1, .L118
	.loc 1 321 0 is_stmt 1
	adrp	x0, .LC3
.LVL149:
	mov	x2, 5
	add	x0, x0, :lo12:.LC3
	bl	memcmp
.LVL150:
	cbnz	w0, .L118
.LBE348:
.LBE347:
.LBE346:
	.loc 1 338 0
	ldr	w0, [x19,72]
	tbnz	x0, 18, .L120
.LVL151:
.L117:
.LBE343:
.LBE342:
	.loc 1 389 0
	mov	x0, x20
	mov	x1, x19
	mov	x2, x21
	bl	bastet_send_priority_msg_internal
.LVL152:
	b	.L147
.LVL153:
.L114:
.LBB354:
.LBB353:
	.loc 1 334 0 discriminator 1
	ldr	w0, [x19,72]
	tst	w0, 786432
	bne	.L119
	b	.L118
.L120:
	.loc 1 342 0
	mov	x0, x20
	bl	is_sock_foreground
.LVL154:
	uxtb	w0, w0
	cbnz	w0, .L117
	.loc 1 347 0
	ldrb	w0, [x20,328]
	cbnz	w0, .L118
.LBB352:
	.loc 1 349 0
	mov	x0, x20
	add	x22, x29, 64
	bl	sock_i_uid
.LVL155:
	mov	w3, w0
	.loc 1 353 0 discriminator 1
	mov	w2, w0
	adrp	x1, .LANCHOR1
	adrp	x0, .LC4
	add	x1, x1, :lo12:.LANCHOR1
	add	x0, x0, :lo12:.LC4
	.loc 1 349 0
	str	w3, [x22,-4]!
.LVL156:
	.loc 1 353 0 discriminator 1
	bl	printk
.LVL157:
	.loc 1 356 0
	mov	x1, x22
	mov	w2, 4
	mov	w0, 20
	bl	post_indicate_packet
.LVL158:
	b	.L117
.LBE352:
.LBE353:
.LBE354:
	.cfi_endproc
.LFE3453:
	.size	bastet_send_priority_msg, .-bastet_send_priority_msg
	.section	.rodata
	.align	3
.LANCHOR0 = . + 0
	.type	__func__.46829, %object
	.size	__func__.46829, 18
__func__.46829:
	.string	"bastet_update_seq"
	.zero	6
	.type	__func__.46843, %object
	.size	__func__.46843, 34
__func__.46843:
	.string	"bastet_send_priority_msg_internal"
	.align	3
.LANCHOR1 = . + 0
	.type	__func__.46860, %object
	.size	__func__.46860, 23
__func__.46860:
	.string	"bastet_check_prio_flag"
	.section	.rodata.str1.8,"aMS",%progbits,1
	.align	3
.LC0:
	.string	"\0016[Bastet] %s: wait_event_interruptible_timeout ret=%d\n"
.LC1:
	.string	"\0013[Bastet] %s: failed to kmalloc\n"
	.zero	6
.LC2:
	.string	"\0013[Bastet] %s: Unknown sync state: %d\n"
	.zero	1
.LC3:
	.string	"rmnet"
	.zero	2
.LC4:
	.string	"\0016[Bastet] %s: BST_IND_PRIORITY_UID, uid=%d\n"
	.text
.Letext0:
	.file 11 "/home/jenkins/slaves/workspace/chipset_component_dallas_BND_F_opensource/component_code/vendor/huawei/extra/build/build_script/austin_kernel_release/kernel/include/uapi/asm-generic/int-ll64.h"
	.file 12 "/home/jenkins/slaves/workspace/chipset_component_dallas_BND_F_opensource/component_code/vendor/huawei/extra/build/build_script/austin_kernel_release/kernel/include/asm-generic/int-ll64.h"
	.file 13 "/home/jenkins/slaves/workspace/chipset_component_dallas_BND_F_opensource/component_code/vendor/huawei/extra/build/build_script/austin_kernel_release/kernel/include/uapi/linux/types.h"
	.file 14 "/home/jenkins/slaves/workspace/chipset_component_dallas_BND_F_opensource/component_code/vendor/huawei/extra/build/build_script/austin_kernel_release/kernel/include/uapi/asm-generic/posix_types.h"
	.file 15 "/home/jenkins/slaves/workspace/chipset_component_dallas_BND_F_opensource/component_code/vendor/huawei/extra/build/build_script/austin_kernel_release/kernel/include/linux/types.h"
	.file 16 "/home/jenkins/slaves/workspace/chipset_component_dallas_BND_F_opensource/component_code/vendor/huawei/extra/build/build_script/austin_kernel_release/kernel/include/linux/thread_info.h"
	.file 17 "/home/jenkins/slaves/workspace/chipset_component_dallas_BND_F_opensource/component_code/vendor/huawei/extra/build/build_script/austin_kernel_release/kernel/include/uapi/linux/time.h"
	.file 18 "/home/jenkins/slaves/workspace/chipset_component_dallas_BND_F_opensource/component_code/vendor/huawei/extra/build/build_script/austin_kernel_release/kernel/arch/arm64/include/asm/compat.h"
	.file 19 "/home/jenkins/slaves/workspace/chipset_component_dallas_BND_F_opensource/component_code/vendor/huawei/extra/build/build_script/austin_kernel_release/kernel/include/uapi/asm-generic/poll.h"
	.file 20 "/home/jenkins/slaves/workspace/chipset_component_dallas_BND_F_opensource/component_code/vendor/huawei/extra/build/build_script/austin_kernel_release/kernel/include/linux/sched.h"
	.file 21 "/home/jenkins/slaves/workspace/chipset_component_dallas_BND_F_opensource/component_code/vendor/huawei/extra/build/build_script/austin_kernel_release/kernel/arch/arm64/include/uapi/asm/ptrace.h"
	.file 22 "/home/jenkins/slaves/workspace/chipset_component_dallas_BND_F_opensource/component_code/vendor/huawei/extra/build/build_script/austin_kernel_release/kernel/arch/arm64/include/asm/spinlock_types.h"
	.file 23 "/home/jenkins/slaves/workspace/chipset_component_dallas_BND_F_opensource/component_code/vendor/huawei/extra/build/build_script/austin_kernel_release/kernel/include/linux/spinlock_types.h"
	.file 24 "/home/jenkins/slaves/workspace/chipset_component_dallas_BND_F_opensource/component_code/vendor/huawei/extra/build/build_script/austin_kernel_release/kernel/include/linux/rwlock_types.h"
	.file 25 "/home/jenkins/slaves/workspace/chipset_component_dallas_BND_F_opensource/component_code/vendor/huawei/extra/build/build_script/austin_kernel_release/kernel/arch/arm64/include/asm/fpsimd.h"
	.file 26 "/home/jenkins/slaves/workspace/chipset_component_dallas_BND_F_opensource/component_code/vendor/huawei/extra/build/build_script/austin_kernel_release/kernel/arch/arm64/include/asm/processor.h"
	.file 27 "/home/jenkins/slaves/workspace/chipset_component_dallas_BND_F_opensource/component_code/vendor/huawei/extra/build/build_script/austin_kernel_release/kernel/include/asm-generic/atomic-long.h"
	.file 28 "/home/jenkins/slaves/workspace/chipset_component_dallas_BND_F_opensource/component_code/vendor/huawei/extra/build/build_script/austin_kernel_release/kernel/include/linux/cpumask.h"
	.file 29 "/home/jenkins/slaves/workspace/chipset_component_dallas_BND_F_opensource/component_code/vendor/huawei/extra/build/build_script/austin_kernel_release/kernel/include/linux/seqlock.h"
	.file 30 "/home/jenkins/slaves/workspace/chipset_component_dallas_BND_F_opensource/component_code/vendor/huawei/extra/build/build_script/austin_kernel_release/kernel/include/linux/wait.h"
	.file 31 "/home/jenkins/slaves/workspace/chipset_component_dallas_BND_F_opensource/component_code/vendor/huawei/extra/build/build_script/austin_kernel_release/kernel/include/linux/completion.h"
	.file 32 "/home/jenkins/slaves/workspace/chipset_component_dallas_BND_F_opensource/component_code/vendor/huawei/extra/build/build_script/austin_kernel_release/kernel/include/linux/list_bl.h"
	.file 33 "/home/jenkins/slaves/workspace/chipset_component_dallas_BND_F_opensource/component_code/vendor/huawei/extra/build/build_script/austin_kernel_release/kernel/include/linux/lockref.h"
	.file 34 "/home/jenkins/slaves/workspace/chipset_component_dallas_BND_F_opensource/component_code/vendor/huawei/extra/build/build_script/austin_kernel_release/kernel/include/linux/dcache.h"
	.file 35 "/home/jenkins/slaves/workspace/chipset_component_dallas_BND_F_opensource/component_code/vendor/huawei/extra/build/build_script/austin_kernel_release/kernel/include/linux/fs.h"
	.file 36 "/home/jenkins/slaves/workspace/chipset_component_dallas_BND_F_opensource/component_code/vendor/huawei/extra/build/build_script/austin_kernel_release/kernel/include/linux/path.h"
	.file 37 "/home/jenkins/slaves/workspace/chipset_component_dallas_BND_F_opensource/component_code/vendor/huawei/extra/build/build_script/austin_kernel_release/kernel/include/linux/capability.h"
	.file 38 "/home/jenkins/slaves/workspace/chipset_component_dallas_BND_F_opensource/component_code/vendor/huawei/extra/build/build_script/austin_kernel_release/kernel/include/linux/plist.h"
	.file 39 "/home/jenkins/slaves/workspace/chipset_component_dallas_BND_F_opensource/component_code/vendor/huawei/extra/build/build_script/austin_kernel_release/kernel/include/linux/rbtree.h"
	.file 40 "/home/jenkins/slaves/workspace/chipset_component_dallas_BND_F_opensource/component_code/vendor/huawei/extra/build/build_script/austin_kernel_release/kernel/include/linux/nodemask.h"
	.file 41 "/home/jenkins/slaves/workspace/chipset_component_dallas_BND_F_opensource/component_code/vendor/huawei/extra/build/build_script/austin_kernel_release/kernel/include/linux/osq_lock.h"
	.file 42 "/home/jenkins/slaves/workspace/chipset_component_dallas_BND_F_opensource/component_code/vendor/huawei/extra/build/build_script/austin_kernel_release/kernel/include/linux/rwsem.h"
	.file 43 "/home/jenkins/slaves/workspace/chipset_component_dallas_BND_F_opensource/component_code/vendor/huawei/extra/build/build_script/austin_kernel_release/kernel/include/linux/mm_types.h"
	.file 44 "/home/jenkins/slaves/workspace/chipset_component_dallas_BND_F_opensource/component_code/vendor/huawei/extra/build/build_script/austin_kernel_release/kernel/include/linux/lockdep.h"
	.file 45 "/home/jenkins/slaves/workspace/chipset_component_dallas_BND_F_opensource/component_code/vendor/huawei/extra/build/build_script/austin_kernel_release/kernel/include/linux/uprobes.h"
	.file 46 "/home/jenkins/slaves/workspace/chipset_component_dallas_BND_F_opensource/component_code/vendor/huawei/extra/build/build_script/austin_kernel_release/kernel/arch/arm64/include/asm/pgtable-types.h"
	.file 47 "/home/jenkins/slaves/workspace/chipset_component_dallas_BND_F_opensource/component_code/vendor/huawei/extra/build/build_script/austin_kernel_release/kernel/arch/arm64/include/asm/mmu.h"
	.file 48 "/home/jenkins/slaves/workspace/chipset_component_dallas_BND_F_opensource/component_code/vendor/huawei/extra/build/build_script/austin_kernel_release/kernel/include/linux/mm.h"
	.file 49 "/home/jenkins/slaves/workspace/chipset_component_dallas_BND_F_opensource/component_code/vendor/huawei/extra/build/build_script/austin_kernel_release/kernel/include/asm-generic/cputime_jiffies.h"
	.file 50 "/home/jenkins/slaves/workspace/chipset_component_dallas_BND_F_opensource/component_code/vendor/huawei/extra/build/build_script/austin_kernel_release/kernel/include/linux/llist.h"
	.file 51 "/home/jenkins/slaves/workspace/chipset_component_dallas_BND_F_opensource/component_code/vendor/huawei/extra/build/build_script/austin_kernel_release/kernel/include/linux/uidgid.h"
	.file 52 "/home/jenkins/slaves/workspace/chipset_component_dallas_BND_F_opensource/component_code/vendor/huawei/extra/build/build_script/austin_kernel_release/kernel/include/linux/sem.h"
	.file 53 "/home/jenkins/slaves/workspace/chipset_component_dallas_BND_F_opensource/component_code/vendor/huawei/extra/build/build_script/austin_kernel_release/kernel/include/linux/shm.h"
	.file 54 "/home/jenkins/slaves/workspace/chipset_component_dallas_BND_F_opensource/component_code/vendor/huawei/extra/build/build_script/austin_kernel_release/kernel/include/uapi/asm-generic/signal.h"
	.file 55 "/home/jenkins/slaves/workspace/chipset_component_dallas_BND_F_opensource/component_code/vendor/huawei/extra/build/build_script/austin_kernel_release/kernel/include/uapi/asm-generic/signal-defs.h"
	.file 56 "/home/jenkins/slaves/workspace/chipset_component_dallas_BND_F_opensource/component_code/vendor/huawei/extra/build/build_script/austin_kernel_release/kernel/include/uapi/asm-generic/siginfo.h"
	.file 57 "/home/jenkins/slaves/workspace/chipset_component_dallas_BND_F_opensource/component_code/vendor/huawei/extra/build/build_script/austin_kernel_release/kernel/include/linux/signal.h"
	.file 58 "/home/jenkins/slaves/workspace/chipset_component_dallas_BND_F_opensource/component_code/vendor/huawei/extra/build/build_script/austin_kernel_release/kernel/include/linux/pid.h"
	.file 59 "/home/jenkins/slaves/workspace/chipset_component_dallas_BND_F_opensource/component_code/vendor/huawei/extra/build/build_script/austin_kernel_release/kernel/include/linux/pid_namespace.h"
	.file 60 "/home/jenkins/slaves/workspace/chipset_component_dallas_BND_F_opensource/component_code/vendor/huawei/extra/build/build_script/austin_kernel_release/kernel/include/linux/mmzone.h"
	.file 61 "/home/jenkins/slaves/workspace/chipset_component_dallas_BND_F_opensource/component_code/vendor/huawei/extra/build/build_script/austin_kernel_release/kernel/include/linux/mutex.h"
	.file 62 "/home/jenkins/slaves/workspace/chipset_component_dallas_BND_F_opensource/component_code/vendor/huawei/extra/build/build_script/austin_kernel_release/kernel/include/linux/ktime.h"
	.file 63 "/home/jenkins/slaves/workspace/chipset_component_dallas_BND_F_opensource/component_code/vendor/huawei/extra/build/build_script/austin_kernel_release/kernel/include/linux/timer.h"
	.file 64 "/home/jenkins/slaves/workspace/chipset_component_dallas_BND_F_opensource/component_code/vendor/huawei/extra/build/build_script/austin_kernel_release/kernel/include/linux/workqueue.h"
	.file 65 "/home/jenkins/slaves/workspace/chipset_component_dallas_BND_F_opensource/component_code/vendor/huawei/extra/build/build_script/austin_kernel_release/kernel/include/linux/notifier.h"
	.file 66 "/home/jenkins/slaves/workspace/chipset_component_dallas_BND_F_opensource/component_code/vendor/huawei/extra/build/build_script/austin_kernel_release/kernel/include/linux/percpu_counter.h"
	.file 67 "/home/jenkins/slaves/workspace/chipset_component_dallas_BND_F_opensource/component_code/vendor/huawei/extra/build/build_script/austin_kernel_release/kernel/include/linux/seccomp.h"
	.file 68 "/home/jenkins/slaves/workspace/chipset_component_dallas_BND_F_opensource/component_code/vendor/huawei/extra/build/build_script/austin_kernel_release/kernel/include/uapi/linux/resource.h"
	.file 69 "/home/jenkins/slaves/workspace/chipset_component_dallas_BND_F_opensource/component_code/vendor/huawei/extra/build/build_script/austin_kernel_release/kernel/include/linux/timerqueue.h"
	.file 70 "/home/jenkins/slaves/workspace/chipset_component_dallas_BND_F_opensource/component_code/vendor/huawei/extra/build/build_script/austin_kernel_release/kernel/include/linux/hrtimer.h"
	.file 71 "/home/jenkins/slaves/workspace/chipset_component_dallas_BND_F_opensource/component_code/vendor/huawei/extra/build/build_script/austin_kernel_release/kernel/include/linux/task_io_accounting.h"
	.file 72 "/home/jenkins/slaves/workspace/chipset_component_dallas_BND_F_opensource/component_code/vendor/huawei/extra/build/build_script/austin_kernel_release/kernel/include/linux/sysctl.h"
	.file 73 "/home/jenkins/slaves/workspace/chipset_component_dallas_BND_F_opensource/component_code/vendor/huawei/extra/build/build_script/austin_kernel_release/kernel/include/linux/nsproxy.h"
	.file 74 "/home/jenkins/slaves/workspace/chipset_component_dallas_BND_F_opensource/component_code/vendor/huawei/extra/build/build_script/austin_kernel_release/kernel/include/linux/assoc_array.h"
	.file 75 "/home/jenkins/slaves/workspace/chipset_component_dallas_BND_F_opensource/component_code/vendor/huawei/extra/build/build_script/austin_kernel_release/kernel/include/linux/key.h"
	.file 76 "/home/jenkins/slaves/workspace/chipset_component_dallas_BND_F_opensource/component_code/vendor/huawei/extra/build/build_script/austin_kernel_release/kernel/include/linux/cred.h"
	.file 77 "/home/jenkins/slaves/workspace/chipset_component_dallas_BND_F_opensource/component_code/vendor/huawei/extra/build/build_script/austin_kernel_release/kernel/include/linux/idr.h"
	.file 78 "/home/jenkins/slaves/workspace/chipset_component_dallas_BND_F_opensource/component_code/vendor/huawei/extra/build/build_script/austin_kernel_release/kernel/include/linux/percpu-refcount.h"
	.file 79 "/home/jenkins/slaves/workspace/chipset_component_dallas_BND_F_opensource/component_code/vendor/huawei/extra/build/build_script/austin_kernel_release/kernel/include/linux/cgroup-defs.h"
	.file 80 "/home/jenkins/slaves/workspace/chipset_component_dallas_BND_F_opensource/component_code/vendor/huawei/extra/build/build_script/austin_kernel_release/kernel/include/linux/kernfs.h"
	.file 81 "/home/jenkins/slaves/workspace/chipset_component_dallas_BND_F_opensource/component_code/vendor/huawei/extra/build/build_script/austin_kernel_release/kernel/include/linux/seq_file.h"
	.file 82 "/home/jenkins/slaves/workspace/chipset_component_dallas_BND_F_opensource/component_code/vendor/huawei/extra/build/build_script/austin_kernel_release/kernel/include/uapi/linux/taskstats.h"
	.file 83 "/home/jenkins/slaves/workspace/chipset_component_dallas_BND_F_opensource/component_code/vendor/huawei/extra/build/build_script/austin_kernel_release/kernel/include/linux/fdtable.h"
	.file 84 "/home/jenkins/slaves/workspace/chipset_component_dallas_BND_F_opensource/component_code/vendor/huawei/extra/build/build_script/austin_kernel_release/kernel/include/linux/compat.h"
	.file 85 "/home/jenkins/slaves/workspace/chipset_component_dallas_BND_F_opensource/component_code/vendor/huawei/extra/build/build_script/austin_kernel_release/kernel/include/linux/shrinker.h"
	.file 86 "/home/jenkins/slaves/workspace/chipset_component_dallas_BND_F_opensource/component_code/vendor/huawei/extra/build/build_script/austin_kernel_release/kernel/include/linux/vmstat.h"
	.file 87 "/home/jenkins/slaves/workspace/chipset_component_dallas_BND_F_opensource/component_code/vendor/huawei/extra/build/build_script/austin_kernel_release/kernel/include/net/net_namespace.h"
	.file 88 "/home/jenkins/slaves/workspace/chipset_component_dallas_BND_F_opensource/component_code/vendor/huawei/extra/build/build_script/austin_kernel_release/kernel/include/linux/kref.h"
	.file 89 "/home/jenkins/slaves/workspace/chipset_component_dallas_BND_F_opensource/component_code/vendor/huawei/extra/build/build_script/austin_kernel_release/kernel/include/linux/ns_common.h"
	.file 90 "/home/jenkins/slaves/workspace/chipset_component_dallas_BND_F_opensource/component_code/vendor/huawei/extra/build/build_script/austin_kernel_release/kernel/include/linux/stat.h"
	.file 91 "/home/jenkins/slaves/workspace/chipset_component_dallas_BND_F_opensource/component_code/vendor/huawei/extra/build/build_script/austin_kernel_release/kernel/include/linux/list_lru.h"
	.file 92 "/home/jenkins/slaves/workspace/chipset_component_dallas_BND_F_opensource/component_code/vendor/huawei/extra/build/build_script/austin_kernel_release/kernel/include/linux/radix-tree.h"
	.file 93 "/home/jenkins/slaves/workspace/chipset_component_dallas_BND_F_opensource/component_code/vendor/huawei/extra/build/build_script/austin_kernel_release/kernel/include/uapi/linux/fiemap.h"
	.file 94 "/home/jenkins/slaves/workspace/chipset_component_dallas_BND_F_opensource/component_code/vendor/huawei/extra/build/build_script/austin_kernel_release/kernel/include/linux/migrate_mode.h"
	.file 95 "/home/jenkins/slaves/workspace/chipset_component_dallas_BND_F_opensource/component_code/vendor/huawei/extra/build/build_script/austin_kernel_release/kernel/include/linux/blk_types.h"
	.file 96 "/home/jenkins/slaves/workspace/chipset_component_dallas_BND_F_opensource/component_code/vendor/huawei/extra/build/build_script/austin_kernel_release/kernel/include/linux/quota.h"
	.file 97 "/home/jenkins/slaves/workspace/chipset_component_dallas_BND_F_opensource/component_code/vendor/huawei/extra/build/build_script/austin_kernel_release/kernel/include/linux/projid.h"
	.file 98 "/home/jenkins/slaves/workspace/chipset_component_dallas_BND_F_opensource/component_code/vendor/huawei/extra/build/build_script/austin_kernel_release/kernel/include/linux/uio.h"
	.file 99 "/home/jenkins/slaves/workspace/chipset_component_dallas_BND_F_opensource/component_code/vendor/huawei/extra/build/build_script/austin_kernel_release/kernel/include/linux/nfs_fs_i.h"
	.file 100 "/home/jenkins/slaves/workspace/chipset_component_dallas_BND_F_opensource/component_code/vendor/huawei/extra/build/build_script/austin_kernel_release/kernel/include/linux/poll.h"
	.file 101 "/home/jenkins/slaves/workspace/chipset_component_dallas_BND_F_opensource/component_code/vendor/huawei/extra/build/build_script/austin_kernel_release/kernel/include/uapi/linux/uio.h"
	.file 102 "/home/jenkins/slaves/workspace/chipset_component_dallas_BND_F_opensource/component_code/vendor/huawei/extra/build/build_script/austin_kernel_release/kernel/include/uapi/linux/socket.h"
	.file 103 "/home/jenkins/slaves/workspace/chipset_component_dallas_BND_F_opensource/component_code/vendor/huawei/extra/build/build_script/austin_kernel_release/kernel/include/linux/socket.h"
	.file 104 "/home/jenkins/slaves/workspace/chipset_component_dallas_BND_F_opensource/component_code/vendor/huawei/extra/build/build_script/austin_kernel_release/kernel/include/linux/jump_label.h"
	.file 105 "/home/jenkins/slaves/workspace/chipset_component_dallas_BND_F_opensource/component_code/vendor/huawei/extra/build/build_script/austin_kernel_release/kernel/include/linux/stddef.h"
	.file 106 "/home/jenkins/slaves/workspace/chipset_component_dallas_BND_F_opensource/component_code/vendor/huawei/extra/build/build_script/austin_kernel_release/kernel/include/uapi/linux/net.h"
	.file 107 "/home/jenkins/slaves/workspace/chipset_component_dallas_BND_F_opensource/component_code/vendor/huawei/extra/build/build_script/austin_kernel_release/kernel/include/linux/net.h"
	.file 108 "/home/jenkins/slaves/workspace/chipset_component_dallas_BND_F_opensource/component_code/vendor/huawei/extra/build/build_script/austin_kernel_release/kernel/include/linux/kobject_ns.h"
	.file 109 "/home/jenkins/slaves/workspace/chipset_component_dallas_BND_F_opensource/component_code/vendor/huawei/extra/build/build_script/austin_kernel_release/kernel/include/linux/sysfs.h"
	.file 110 "/home/jenkins/slaves/workspace/chipset_component_dallas_BND_F_opensource/component_code/vendor/huawei/extra/build/build_script/austin_kernel_release/kernel/include/linux/kobject.h"
	.file 111 "/home/jenkins/slaves/workspace/chipset_component_dallas_BND_F_opensource/component_code/vendor/huawei/extra/build/build_script/austin_kernel_release/kernel/include/linux/klist.h"
	.file 112 "/home/jenkins/slaves/workspace/chipset_component_dallas_BND_F_opensource/component_code/vendor/huawei/extra/build/build_script/austin_kernel_release/kernel/include/linux/pinctrl/devinfo.h"
	.file 113 "/home/jenkins/slaves/workspace/chipset_component_dallas_BND_F_opensource/component_code/vendor/huawei/extra/build/build_script/austin_kernel_release/kernel/include/linux/pm.h"
	.file 114 "/home/jenkins/slaves/workspace/chipset_component_dallas_BND_F_opensource/component_code/vendor/huawei/extra/build/build_script/austin_kernel_release/kernel/include/linux/device.h"
	.file 115 "/home/jenkins/slaves/workspace/chipset_component_dallas_BND_F_opensource/component_code/vendor/huawei/extra/build/build_script/austin_kernel_release/kernel/include/linux/pm_wakeup.h"
	.file 116 "/home/jenkins/slaves/workspace/chipset_component_dallas_BND_F_opensource/component_code/vendor/huawei/extra/build/build_script/austin_kernel_release/kernel/arch/arm64/include/asm/device.h"
	.file 117 "/home/jenkins/slaves/workspace/chipset_component_dallas_BND_F_opensource/component_code/vendor/huawei/extra/build/build_script/austin_kernel_release/kernel/include/linux/dma-mapping.h"
	.file 118 "/home/jenkins/slaves/workspace/chipset_component_dallas_BND_F_opensource/component_code/vendor/huawei/extra/build/build_script/austin_kernel_release/kernel/include/linux/mod_devicetable.h"
	.file 119 "/home/jenkins/slaves/workspace/chipset_component_dallas_BND_F_opensource/component_code/vendor/huawei/extra/build/build_script/austin_kernel_release/kernel/include/linux/of.h"
	.file 120 "/home/jenkins/slaves/workspace/chipset_component_dallas_BND_F_opensource/component_code/vendor/huawei/extra/build/build_script/austin_kernel_release/kernel/include/linux/fwnode.h"
	.file 121 "/home/jenkins/slaves/workspace/chipset_component_dallas_BND_F_opensource/component_code/vendor/huawei/extra/build/build_script/austin_kernel_release/kernel/include/linux/dma-attrs.h"
	.file 122 "/home/jenkins/slaves/workspace/chipset_component_dallas_BND_F_opensource/component_code/vendor/huawei/extra/build/build_script/austin_kernel_release/kernel/include/linux/dma-direction.h"
	.file 123 "/home/jenkins/slaves/workspace/chipset_component_dallas_BND_F_opensource/component_code/vendor/huawei/extra/build/build_script/austin_kernel_release/kernel/include/asm-generic/scatterlist.h"
	.file 124 "/home/jenkins/slaves/workspace/chipset_component_dallas_BND_F_opensource/component_code/vendor/huawei/extra/build/build_script/austin_kernel_release/kernel/include/linux/scatterlist.h"
	.file 125 "/home/jenkins/slaves/workspace/chipset_component_dallas_BND_F_opensource/component_code/vendor/huawei/extra/build/build_script/austin_kernel_release/kernel/include/linux/netdev_features.h"
	.file 126 "/home/jenkins/slaves/workspace/chipset_component_dallas_BND_F_opensource/component_code/vendor/huawei/extra/build/build_script/austin_kernel_release/kernel/include/linux/netdevice.h"
	.file 127 "/home/jenkins/slaves/workspace/chipset_component_dallas_BND_F_opensource/component_code/vendor/huawei/extra/build/build_script/austin_kernel_release/kernel/include/linux/list_nulls.h"
	.file 128 "/home/jenkins/slaves/workspace/chipset_component_dallas_BND_F_opensource/component_code/vendor/huawei/extra/build/build_script/austin_kernel_release/kernel/include/linux/dynamic_queue_limits.h"
	.file 129 "/home/jenkins/slaves/workspace/chipset_component_dallas_BND_F_opensource/component_code/vendor/huawei/extra/build/build_script/austin_kernel_release/kernel/include/uapi/linux/hdlc/ioctl.h"
	.file 130 "/home/jenkins/slaves/workspace/chipset_component_dallas_BND_F_opensource/component_code/vendor/huawei/extra/build/build_script/austin_kernel_release/kernel/include/uapi/linux/if.h"
	.file 131 "/home/jenkins/slaves/workspace/chipset_component_dallas_BND_F_opensource/component_code/vendor/huawei/extra/build/build_script/austin_kernel_release/kernel/include/uapi/linux/if_ether.h"
	.file 132 "/home/jenkins/slaves/workspace/chipset_component_dallas_BND_F_opensource/component_code/vendor/huawei/extra/build/build_script/austin_kernel_release/kernel/include/uapi/linux/ethtool.h"
	.file 133 "/home/jenkins/slaves/workspace/chipset_component_dallas_BND_F_opensource/component_code/vendor/huawei/extra/build/build_script/austin_kernel_release/kernel/include/linux/ethtool.h"
	.file 134 "/home/jenkins/slaves/workspace/chipset_component_dallas_BND_F_opensource/component_code/vendor/huawei/extra/build/build_script/austin_kernel_release/kernel/include/uapi/linux/in6.h"
	.file 135 "/home/jenkins/slaves/workspace/chipset_component_dallas_BND_F_opensource/component_code/vendor/huawei/extra/build/build_script/austin_kernel_release/kernel/include/net/flow.h"
	.file 136 "/home/jenkins/slaves/workspace/chipset_component_dallas_BND_F_opensource/component_code/vendor/huawei/extra/build/build_script/austin_kernel_release/kernel/include/net/netns/core.h"
	.file 137 "/home/jenkins/slaves/workspace/chipset_component_dallas_BND_F_opensource/component_code/vendor/huawei/extra/build/build_script/austin_kernel_release/kernel/include/linux/u64_stats_sync.h"
	.file 138 "/home/jenkins/slaves/workspace/chipset_component_dallas_BND_F_opensource/component_code/vendor/huawei/extra/build/build_script/austin_kernel_release/kernel/include/net/snmp.h"
	.file 139 "/home/jenkins/slaves/workspace/chipset_component_dallas_BND_F_opensource/component_code/vendor/huawei/extra/build/build_script/austin_kernel_release/kernel/include/net/netns/mib.h"
	.file 140 "/home/jenkins/slaves/workspace/chipset_component_dallas_BND_F_opensource/component_code/vendor/huawei/extra/build/build_script/austin_kernel_release/kernel/include/net/netns/unix.h"
	.file 141 "/home/jenkins/slaves/workspace/chipset_component_dallas_BND_F_opensource/component_code/vendor/huawei/extra/build/build_script/austin_kernel_release/kernel/include/net/netns/packet.h"
	.file 142 "/home/jenkins/slaves/workspace/chipset_component_dallas_BND_F_opensource/component_code/vendor/huawei/extra/build/build_script/austin_kernel_release/kernel/include/net/inet_frag.h"
	.file 143 "/home/jenkins/slaves/workspace/chipset_component_dallas_BND_F_opensource/component_code/vendor/huawei/extra/build/build_script/austin_kernel_release/kernel/include/net/netns/ipv4.h"
	.file 144 "/home/jenkins/slaves/workspace/chipset_component_dallas_BND_F_opensource/component_code/vendor/huawei/extra/build/build_script/austin_kernel_release/kernel/include/net/inetpeer.h"
	.file 145 "/home/jenkins/slaves/workspace/chipset_component_dallas_BND_F_opensource/component_code/vendor/huawei/extra/build/build_script/austin_kernel_release/kernel/include/linux/netfilter/x_tables.h"
	.file 146 "/home/jenkins/slaves/workspace/chipset_component_dallas_BND_F_opensource/component_code/vendor/huawei/extra/build/build_script/austin_kernel_release/kernel/include/net/dst_ops.h"
	.file 147 "/home/jenkins/slaves/workspace/chipset_component_dallas_BND_F_opensource/component_code/vendor/huawei/extra/build/build_script/austin_kernel_release/kernel/include/net/dst.h"
	.file 148 "/home/jenkins/slaves/workspace/chipset_component_dallas_BND_F_opensource/component_code/vendor/huawei/extra/build/build_script/austin_kernel_release/kernel/include/net/neighbour.h"
	.file 149 "/home/jenkins/slaves/workspace/chipset_component_dallas_BND_F_opensource/component_code/vendor/huawei/extra/build/build_script/austin_kernel_release/kernel/include/net/netns/ipv6.h"
	.file 150 "/home/jenkins/slaves/workspace/chipset_component_dallas_BND_F_opensource/component_code/vendor/huawei/extra/build/build_script/austin_kernel_release/kernel/include/linux/ipv6.h"
	.file 151 "/home/jenkins/slaves/workspace/chipset_component_dallas_BND_F_opensource/component_code/vendor/huawei/extra/build/build_script/austin_kernel_release/kernel/include/linux/netfilter.h"
	.file 152 "/home/jenkins/slaves/workspace/chipset_component_dallas_BND_F_opensource/component_code/vendor/huawei/extra/build/build_script/austin_kernel_release/kernel/include/uapi/linux/netlink.h"
	.file 153 "/home/jenkins/slaves/workspace/chipset_component_dallas_BND_F_opensource/component_code/vendor/huawei/extra/build/build_script/austin_kernel_release/kernel/include/net/netns/netfilter.h"
	.file 154 "/home/jenkins/slaves/workspace/chipset_component_dallas_BND_F_opensource/component_code/vendor/huawei/extra/build/build_script/austin_kernel_release/kernel/include/net/netns/x_tables.h"
	.file 155 "/home/jenkins/slaves/workspace/chipset_component_dallas_BND_F_opensource/component_code/vendor/huawei/extra/build/build_script/austin_kernel_release/kernel/include/net/netns/conntrack.h"
	.file 156 "/home/jenkins/slaves/workspace/chipset_component_dallas_BND_F_opensource/component_code/vendor/huawei/extra/build/build_script/austin_kernel_release/kernel/include/net/netns/nftables.h"
	.file 157 "/home/jenkins/slaves/workspace/chipset_component_dallas_BND_F_opensource/component_code/vendor/huawei/extra/build/build_script/austin_kernel_release/kernel/include/linux/interrupt.h"
	.file 158 "/home/jenkins/slaves/workspace/chipset_component_dallas_BND_F_opensource/component_code/vendor/huawei/extra/build/build_script/austin_kernel_release/kernel/include/net/flowcache.h"
	.file 159 "/home/jenkins/slaves/workspace/chipset_component_dallas_BND_F_opensource/component_code/vendor/huawei/extra/build/build_script/austin_kernel_release/kernel/include/net/netns/xfrm.h"
	.file 160 "/home/jenkins/slaves/workspace/chipset_component_dallas_BND_F_opensource/component_code/vendor/huawei/extra/build/build_script/austin_kernel_release/kernel/include/linux/phy.h"
	.file 161 "/home/jenkins/slaves/workspace/chipset_component_dallas_BND_F_opensource/component_code/vendor/huawei/extra/build/build_script/austin_kernel_release/kernel/include/net/request_sock.h"
	.file 162 "/home/jenkins/slaves/workspace/chipset_component_dallas_BND_F_opensource/component_code/vendor/huawei/extra/build/build_script/austin_kernel_release/kernel/include/linux/netlink.h"
	.file 163 "/home/jenkins/slaves/workspace/chipset_component_dallas_BND_F_opensource/component_code/vendor/huawei/extra/build/build_script/austin_kernel_release/kernel/include/uapi/linux/neighbour.h"
	.file 164 "/home/jenkins/slaves/workspace/chipset_component_dallas_BND_F_opensource/component_code/vendor/huawei/extra/build/build_script/austin_kernel_release/kernel/include/uapi/linux/if_link.h"
	.file 165 "/home/jenkins/slaves/workspace/chipset_component_dallas_BND_F_opensource/component_code/vendor/huawei/extra/build/build_script/austin_kernel_release/kernel/include/linux/if_link.h"
	.file 166 "/home/jenkins/slaves/workspace/chipset_component_dallas_BND_F_opensource/component_code/vendor/huawei/extra/build/build_script/austin_kernel_release/kernel/include/net/if_inet6.h"
	.file 167 "/home/jenkins/slaves/workspace/chipset_component_dallas_BND_F_opensource/component_code/vendor/huawei/extra/build/build_script/austin_kernel_release/kernel/include/net/rtnetlink.h"
	.file 168 "/home/jenkins/slaves/workspace/chipset_component_dallas_BND_F_opensource/component_code/vendor/huawei/extra/build/build_script/austin_kernel_release/kernel/include/linux/page_counter.h"
	.file 169 "/home/jenkins/slaves/workspace/chipset_component_dallas_BND_F_opensource/component_code/vendor/huawei/extra/build/build_script/austin_kernel_release/kernel/include/uapi/linux/filter.h"
	.file 170 "/home/jenkins/slaves/workspace/chipset_component_dallas_BND_F_opensource/component_code/vendor/huawei/extra/build/build_script/austin_kernel_release/kernel/include/uapi/linux/bpf.h"
	.file 171 "/home/jenkins/slaves/workspace/chipset_component_dallas_BND_F_opensource/component_code/vendor/huawei/extra/build/build_script/austin_kernel_release/kernel/include/linux/filter.h"
	.file 172 "/home/jenkins/slaves/workspace/chipset_component_dallas_BND_F_opensource/component_code/vendor/huawei/extra/build/build_script/austin_kernel_release/kernel/include/net/netlink.h"
	.file 173 "/home/jenkins/slaves/workspace/chipset_component_dallas_BND_F_opensource/component_code/vendor/huawei/extra/build/build_script/austin_kernel_release/kernel/include/net/route.h"
	.file 174 "/home/jenkins/slaves/workspace/chipset_component_dallas_BND_F_opensource/component_code/vendor/huawei/extra/build/build_script/austin_kernel_release/kernel/include/huawei_platform/power/bastet/bastet.h"
	.file 175 "/home/jenkins/slaves/workspace/chipset_component_dallas_BND_F_opensource/component_code/vendor/huawei/extra/build/build_script/austin_kernel_release/kernel/include/net/inet_hashtables.h"
	.file 176 "/home/jenkins/slaves/workspace/chipset_component_dallas_BND_F_opensource/component_code/vendor/huawei/extra/build/build_script/austin_kernel_release/kernel/include/net/timewait_sock.h"
	.file 177 "/home/jenkins/slaves/workspace/chipset_component_dallas_BND_F_opensource/component_code/vendor/huawei/extra/build/build_script/austin_kernel_release/kernel/include/net/inet_sock.h"
	.file 178 "/home/jenkins/slaves/workspace/chipset_component_dallas_BND_F_opensource/component_code/vendor/huawei/extra/build/build_script/austin_kernel_release/kernel/include/net/inet_connection_sock.h"
	.file 179 "/home/jenkins/slaves/workspace/chipset_component_dallas_BND_F_opensource/component_code/vendor/huawei/extra/build/build_script/austin_kernel_release/kernel/include/linux/tcp.h"
	.file 180 "/home/jenkins/slaves/workspace/chipset_component_dallas_BND_F_opensource/component_code/vendor/huawei/extra/build/build_script/austin_kernel_release/kernel/include/uapi/linux/ipv6.h"
	.file 181 "/home/jenkins/slaves/workspace/chipset_component_dallas_BND_F_opensource/component_code/vendor/huawei/extra/build/build_script/austin_kernel_release/kernel/include/net/ipv6.h"
	.file 182 "/home/jenkins/slaves/workspace/chipset_component_dallas_BND_F_opensource/component_code/vendor/huawei/extra/build/build_script/austin_kernel_release/kernel/include/net/ip.h"
	.file 183 "/home/jenkins/slaves/workspace/chipset_component_dallas_BND_F_opensource/component_code/vendor/huawei/extra/build/build_script/austin_kernel_release/kernel/include/huawei_platform/power/bastet/bastet_dev.h"
	.file 184 "/home/jenkins/slaves/workspace/chipset_component_dallas_BND_F_opensource/component_code/vendor/huawei/extra/build/build_script/austin_kernel_release/kernel/include/asm-generic/bitops/builtin-__fls.h"
	.file 185 "/home/jenkins/slaves/workspace/chipset_component_dallas_BND_F_opensource/component_code/vendor/huawei/extra/build/build_script/austin_kernel_release/kernel/include/asm-generic/bitops/fls64.h"
	.file 186 "/home/jenkins/slaves/workspace/chipset_component_dallas_BND_F_opensource/component_code/vendor/huawei/extra/build/build_script/austin_kernel_release/kernel/include/linux/log2.h"
	.file 187 "/home/jenkins/slaves/workspace/chipset_component_dallas_BND_F_opensource/component_code/vendor/huawei/extra/build/build_script/austin_kernel_release/kernel/include/asm-generic/getorder.h"
	.file 188 "/home/jenkins/slaves/workspace/chipset_component_dallas_BND_F_opensource/component_code/vendor/huawei/extra/build/build_script/austin_kernel_release/kernel/arch/arm64/include/asm/cachetype.h"
	.file 189 "/home/jenkins/slaves/workspace/chipset_component_dallas_BND_F_opensource/component_code/vendor/huawei/extra/build/build_script/austin_kernel_release/kernel/include/linux/printk.h"
	.file 190 "/home/jenkins/slaves/workspace/chipset_component_dallas_BND_F_opensource/component_code/vendor/huawei/extra/build/build_script/austin_kernel_release/kernel/include/linux/kernel.h"
	.file 191 "/home/jenkins/slaves/workspace/chipset_component_dallas_BND_F_opensource/component_code/vendor/huawei/extra/build/build_script/austin_kernel_release/kernel/arch/arm64/include/asm/hwcap.h"
	.file 192 "/home/jenkins/slaves/workspace/chipset_component_dallas_BND_F_opensource/component_code/vendor/huawei/extra/build/build_script/austin_kernel_release/kernel/include/linux/jiffies.h"
	.file 193 "/home/jenkins/slaves/workspace/chipset_component_dallas_BND_F_opensource/component_code/vendor/huawei/extra/build/build_script/austin_kernel_release/kernel/arch/arm64/include/asm/memory.h"
	.file 194 "/home/jenkins/slaves/workspace/chipset_component_dallas_BND_F_opensource/component_code/vendor/huawei/extra/build/build_script/austin_kernel_release/kernel/include/linux/highuid.h"
	.file 195 "/home/jenkins/slaves/workspace/chipset_component_dallas_BND_F_opensource/component_code/vendor/huawei/extra/build/build_script/austin_kernel_release/kernel/include/asm-generic/percpu.h"
	.file 196 "/home/jenkins/slaves/workspace/chipset_component_dallas_BND_F_opensource/component_code/vendor/huawei/extra/build/build_script/austin_kernel_release/kernel/include/linux/debug_locks.h"
	.file 197 "/home/jenkins/slaves/workspace/chipset_component_dallas_BND_F_opensource/component_code/vendor/huawei/extra/build/build_script/austin_kernel_release/kernel/include/asm-generic/pgtable.h"
	.file 198 "/home/jenkins/slaves/workspace/chipset_component_dallas_BND_F_opensource/component_code/vendor/huawei/extra/build/build_script/austin_kernel_release/kernel/arch/arm64/include/asm/cpufeature.h"
	.file 199 "/home/jenkins/slaves/workspace/chipset_component_dallas_BND_F_opensource/component_code/vendor/huawei/extra/build/build_script/austin_kernel_release/kernel/arch/arm64/include/../../arm/include/asm/xen/hypervisor.h"
	.file 200 "/home/jenkins/slaves/workspace/chipset_component_dallas_BND_F_opensource/component_code/vendor/huawei/extra/build/build_script/austin_kernel_release/kernel/arch/arm64/include/asm/dma-mapping.h"
	.file 201 "/home/jenkins/slaves/workspace/chipset_component_dallas_BND_F_opensource/component_code/vendor/huawei/extra/build/build_script/austin_kernel_release/kernel/arch/arm64/include/asm/hardirq.h"
	.file 202 "/home/jenkins/slaves/workspace/chipset_component_dallas_BND_F_opensource/component_code/vendor/huawei/extra/build/build_script/austin_kernel_release/kernel/include/linux/cgroup.h"
	.file 203 "/home/jenkins/slaves/workspace/chipset_component_dallas_BND_F_opensource/component_code/vendor/huawei/extra/build/build_script/austin_kernel_release/kernel/include/net/ndisc.h"
	.file 204 "/home/jenkins/slaves/workspace/chipset_component_dallas_BND_F_opensource/component_code/vendor/huawei/extra/build/build_script/austin_kernel_release/kernel/include/linux/file.h"
	.file 205 "/home/jenkins/slaves/workspace/chipset_component_dallas_BND_F_opensource/component_code/vendor/huawei/extra/build/build_script/austin_kernel_release/kernel/include/huawei_platform/power/bastet/bastet_utils.h"
	.file 206 "/home/jenkins/slaves/workspace/chipset_component_dallas_BND_F_opensource/component_code/vendor/huawei/extra/build/build_script/austin_kernel_release/kernel/arch/arm64/include/asm/string.h"
	.section	.note.GNU-stack,"",%progbits
